target datalayout = "e-m:e-p270:32:32-p271:32:32-p272:64:64-i64:64-i128:128-f80:128-n8:16:32:64-S128"
target triple = "x86_64-unknown-linux-gnu"

%"class.icu_75::UObject" = type { ptr }
%"class.icu_75::AlphabeticIndex::ImmutableIndex" = type { %"class.icu_75::UObject", ptr, ptr }
%"class.icu_75::UnicodeString" = type { %"class.icu_75::Replaceable", %"union.icu_75::UnicodeString::StackBufferOrFields" }
%"class.icu_75::Replaceable" = type { %"class.icu_75::UObject" }
%"union.icu_75::UnicodeString::StackBufferOrFields" = type { %struct.anon.0, [32 x i8] }
%struct.anon.0 = type { i16, i32, i32, ptr }
%"class.icu_75::AlphabeticIndex" = type { %"class.icu_75::UObject", ptr, i32, i32, ptr, i32, ptr, ptr, ptr, ptr, ptr, %"class.icu_75::UnicodeString", %"class.icu_75::UnicodeString", %"class.icu_75::UnicodeString", %"class.icu_75::UnicodeString", %"class.icu_75::UnicodeString" }
%"class.icu_75::LocalPointer" = type { %"class.icu_75::LocalPointerBase" }
%"class.icu_75::LocalPointerBase" = type { ptr }
%"class.icu_75::LocalPointer.1" = type { %"class.icu_75::LocalPointerBase.2" }
%"class.icu_75::LocalPointerBase.2" = type { ptr }

@_ZTVN6icu_757UObjectE = external unnamed_addr constant { [5 x ptr] }, align 8

; Function Attrs: mustprogress nounwind uwtable
define linkonce_odr void @_ZN6icu_7516LocalPointerBaseINS_10BucketListEED2Ev(ptr noundef nonnull align 8 dereferenceable(8) %this) unnamed_addr #0 comdat align 2 {
entry:
  %this.addr = alloca ptr, align 8
  store ptr %this, ptr %this.addr, align 8
  ret void
}

; Function Attrs: mustprogress nounwind uwtable
define linkonce_odr void @_ZN6icu_7516LocalPointerBaseINS_17RuleBasedCollatorEED2Ev(ptr noundef nonnull align 8 dereferenceable(8) %this) unnamed_addr #0 comdat align 2 {
entry:
  %this.addr = alloca ptr, align 8
  store ptr %this, ptr %this.addr, align 8
  ret void
}

; Function Attrs: mustprogress nounwind uwtable
define linkonce_odr void @_ZN6icu_757UObjectC2Ev(ptr noundef nonnull align 8 dereferenceable(8) %this) unnamed_addr #0 comdat align 2 {
entry:
  %this.addr = alloca ptr, align 8
  store ptr %this, ptr %this.addr, align 8
  %this1 = load ptr, ptr %this.addr, align 8
  store ptr getelementptr inbounds ({ [5 x ptr] }, ptr @_ZTVN6icu_757UObjectE, i32 0, i32 0, i32 2), ptr %this1, align 8
  ret void
}

; Function Attrs: mustprogress nounwind uwtable
define linkonce_odr void @_ZN6icu_7516LocalPointerBaseINS_17RuleBasedCollatorEEC2EPS1_(ptr noundef nonnull align 8 dereferenceable(8) %this, ptr noundef %p) unnamed_addr #0 comdat align 2 {
entry:
  %this.addr = alloca ptr, align 8
  %p.addr = alloca ptr, align 8
  store ptr %this, ptr %this.addr, align 8
  store ptr %p, ptr %p.addr, align 8
  %this1 = load ptr, ptr %this.addr, align 8
  %ptr = getelementptr inbounds %"class.icu_75::LocalPointerBase.2", ptr %this1, i32 0, i32 0
  %0 = load ptr, ptr %p.addr, align 8
  store ptr %0, ptr %ptr, align 8
  ret void
}

; Function Attrs: mustprogress nounwind uwtable
define linkonce_odr void @_ZN6icu_7516LocalPointerBaseINS_10BucketListEEC2EPS1_(ptr noundef nonnull align 8 dereferenceable(8) %this, ptr noundef %p) unnamed_addr #0 comdat align 2 {
entry:
  %this.addr = alloca ptr, align 8
  %p.addr = alloca ptr, align 8
  store ptr %this, ptr %this.addr, align 8
  store ptr %p, ptr %p.addr, align 8
  %this1 = load ptr, ptr %this.addr, align 8
  %ptr = getelementptr inbounds %"class.icu_75::LocalPointerBase", ptr %this1, i32 0, i32 0
  %0 = load ptr, ptr %p.addr, align 8
  store ptr %0, ptr %ptr, align 8
  ret void
}

; Function Attrs: mustprogress nounwind uwtable
define linkonce_odr void @_ZN6icu_7512LocalPointerINS_10BucketListEED2Ev(ptr noundef nonnull align 8 dereferenceable(8) %this) unnamed_addr #0 comdat align 2 {
entry:
  %this.addr = alloca ptr, align 8
  store ptr %this, ptr %this.addr, align 8
  %this1 = load ptr, ptr %this.addr, align 8
  %ptr = getelementptr inbounds %"class.icu_75::LocalPointerBase", ptr %this1, i32 0, i32 0
  %0 = load ptr, ptr %ptr, align 8
  %isnull = icmp eq ptr %0, null
  br i1 %isnull, label %delete.end, label %delete.notnull

delete.notnull:                                   ; preds = %entry
  %vtable = load ptr, ptr %0, align 8
  %vfn = getelementptr inbounds ptr, ptr %vtable, i64 1
  %1 = load ptr, ptr %vfn, align 8
  call void %1(ptr noundef nonnull align 8 dereferenceable(24) %0) #7
  br label %delete.end

delete.end:                                       ; preds = %delete.notnull, %entry
  call void @_ZN6icu_7516LocalPointerBaseINS_10BucketListEED2Ev(ptr noundef nonnull align 8 dereferenceable(8) %this1) #7
  ret void
}

; Function Attrs: mustprogress nounwind uwtable
define linkonce_odr void @_ZN6icu_7512LocalPointerINS_17RuleBasedCollatorEED2Ev(ptr noundef nonnull align 8 dereferenceable(8) %this) unnamed_addr #0 comdat align 2 {
entry:
  %this.addr = alloca ptr, align 8
  store ptr %this, ptr %this.addr, align 8
  %this1 = load ptr, ptr %this.addr, align 8
  %ptr = getelementptr inbounds %"class.icu_75::LocalPointerBase.2", ptr %this1, i32 0, i32 0
  %0 = load ptr, ptr %ptr, align 8
  %isnull = icmp eq ptr %0, null
  br i1 %isnull, label %delete.end, label %delete.notnull

delete.notnull:                                   ; preds = %entry
  call void @_ZN6icu_7517RuleBasedCollatorD1Ev(ptr noundef nonnull align 8 dereferenceable(272) %0) #7
  call void @_ZN6icu_757UMemorydlEPv(ptr noundef %0) #7
  br label %delete.end

delete.end:                                       ; preds = %delete.notnull, %entry
  call void @_ZN6icu_7516LocalPointerBaseINS_17RuleBasedCollatorEED2Ev(ptr noundef nonnull align 8 dereferenceable(8) %this1) #7
  ret void
}

; Function Attrs: mustprogress nounwind uwtable
define linkonce_odr noundef ptr @_ZN6icu_7516LocalPointerBaseINS_17RuleBasedCollatorEE6orphanEv(ptr noundef nonnull align 8 dereferenceable(8) %this) #0 comdat align 2 {
entry:
  %this.addr = alloca ptr, align 8
  %p = alloca ptr, align 8
  store ptr %this, ptr %this.addr, align 8
  %this1 = load ptr, ptr %this.addr, align 8
  %ptr = getelementptr inbounds %"class.icu_75::LocalPointerBase.2", ptr %this1, i32 0, i32 0
  %0 = load ptr, ptr %ptr, align 8
  store ptr %0, ptr %p, align 8
  %ptr2 = getelementptr inbounds %"class.icu_75::LocalPointerBase.2", ptr %this1, i32 0, i32 0
  store ptr null, ptr %ptr2, align 8
  %1 = load ptr, ptr %p, align 8
  ret ptr %1
}

; Function Attrs: mustprogress nounwind uwtable
define linkonce_odr noundef ptr @_ZN6icu_7516LocalPointerBaseINS_10BucketListEE6orphanEv(ptr noundef nonnull align 8 dereferenceable(8) %this) #0 comdat align 2 {
entry:
  %this.addr = alloca ptr, align 8
  %p = alloca ptr, align 8
  store ptr %this, ptr %this.addr, align 8
  %this1 = load ptr, ptr %this.addr, align 8
  %ptr = getelementptr inbounds %"class.icu_75::LocalPointerBase", ptr %this1, i32 0, i32 0
  %0 = load ptr, ptr %ptr, align 8
  store ptr %0, ptr %p, align 8
  %ptr2 = getelementptr inbounds %"class.icu_75::LocalPointerBase", ptr %this1, i32 0, i32 0
  store ptr null, ptr %ptr2, align 8
  %1 = load ptr, ptr %p, align 8
  ret ptr %1
}

; Function Attrs: mustprogress nounwind uwtable
define linkonce_odr void @_ZN6icu_7515AlphabeticIndex14ImmutableIndexC2EPNS_10BucketListEPNS_8CollatorE(ptr noundef nonnull align 8 dereferenceable(24) %this, ptr noundef %bucketList, ptr noundef %collatorPrimaryOnly) unnamed_addr #0 comdat align 2 {
entry:
  %this.addr = alloca ptr, align 8
  %bucketList.addr = alloca ptr, align 8
  %collatorPrimaryOnly.addr = alloca ptr, align 8
  store ptr %this, ptr %this.addr, align 8
  store ptr %bucketList, ptr %bucketList.addr, align 8
  store ptr %collatorPrimaryOnly, ptr %collatorPrimaryOnly.addr, align 8
  %this1 = load ptr, ptr %this.addr, align 8
  call void @_ZN6icu_757UObjectC2Ev(ptr noundef nonnull align 8 dereferenceable(8) %this1) #7
  store ptr getelementptr inbounds ({ [5 x ptr] }, ptr @_ZTVN6icu_7515AlphabeticIndex14ImmutableIndexE, i32 0, i32 0, i32 2), ptr %this1, align 8
  %buckets_ = getelementptr inbounds %"class.icu_75::AlphabeticIndex::ImmutableIndex", ptr %this1, i32 0, i32 1
  %0 = load ptr, ptr %bucketList.addr, align 8
  store ptr %0, ptr %buckets_, align 8
  %collatorPrimaryOnly_ = getelementptr inbounds %"class.icu_75::AlphabeticIndex::ImmutableIndex", ptr %this1, i32 0, i32 2
  %1 = load ptr, ptr %collatorPrimaryOnly.addr, align 8
  store ptr %1, ptr %collatorPrimaryOnly_, align 8
  ret void
}

; Function Attrs: mustprogress nounwind uwtable
define linkonce_odr noundef ptr @_ZNK6icu_7516LocalPointerBaseINS_17RuleBasedCollatorEE8getAliasEv(ptr noundef nonnull align 8 dereferenceable(8) %this) #0 comdat align 2 {
entry:
  %this.addr = alloca ptr, align 8
  store ptr %this, ptr %this.addr, align 8
  %this1 = load ptr, ptr %this.addr, align 8
  %ptr = getelementptr inbounds %"class.icu_75::LocalPointerBase.2", ptr %this1, i32 0, i32 0
  %0 = load ptr, ptr %ptr, align 8
  ret ptr %0
}

; Function Attrs: mustprogress nounwind uwtable
define linkonce_odr noundef ptr @_ZNK6icu_7516LocalPointerBaseINS_10BucketListEE8getAliasEv(ptr noundef nonnull align 8 dereferenceable(8) %this) #0 comdat align 2 {
entry:
  %this.addr = alloca ptr, align 8
  store ptr %this, ptr %this.addr, align 8
  %this1 = load ptr, ptr %this.addr, align 8
  %ptr = getelementptr inbounds %"class.icu_75::LocalPointerBase", ptr %this1, i32 0, i32 0
  %0 = load ptr, ptr %ptr, align 8
  ret ptr %0
}

; Function Attrs: mustprogress nounwind uwtable
define linkonce_odr noundef signext i8 @_ZNK6icu_7516LocalPointerBaseINS_17RuleBasedCollatorEE6isNullEv(ptr noundef nonnull align 8 dereferenceable(8) %this) #0 comdat align 2 {
entry:
  %this.addr = alloca ptr, align 8
  store ptr %this, ptr %this.addr, align 8
  %this1 = load ptr, ptr %this.addr, align 8
  %ptr = getelementptr inbounds %"class.icu_75::LocalPointerBase.2", ptr %this1, i32 0, i32 0
  %0 = load ptr, ptr %ptr, align 8
  %cmp = icmp eq ptr %0, null
  %conv = zext i1 %cmp to i8
  ret i8 %conv
}

; Function Attrs: mustprogress nounwind uwtable
define linkonce_odr noundef signext i8 @_ZNK6icu_7516LocalPointerBaseINS_10BucketListEE6isNullEv(ptr noundef nonnull align 8 dereferenceable(8) %this) #0 comdat align 2 {
entry:
  %this.addr = alloca ptr, align 8
  store ptr %this, ptr %this.addr, align 8
  %this1 = load ptr, ptr %this.addr, align 8
  %ptr = getelementptr inbounds %"class.icu_75::LocalPointerBase", ptr %this1, i32 0, i32 0
  %0 = load ptr, ptr %ptr, align 8
  %cmp = icmp eq ptr %0, null
  %conv = zext i1 %cmp to i8
  ret i8 %conv
}

; Function Attrs: mustprogress uwtable
define linkonce_odr void @_ZN6icu_7512LocalPointerINS_17RuleBasedCollatorEEC2EPS1_(ptr noundef nonnull align 8 dereferenceable(8) %this, ptr noundef %p) unnamed_addr #2 comdat align 2 {
entry:
  %this.addr = alloca ptr, align 8
  %p.addr = alloca ptr, align 8
  store ptr %this, ptr %this.addr, align 8
  store ptr %p, ptr %p.addr, align 8
  %this1 = load ptr, ptr %this.addr, align 8
  %0 = load ptr, ptr %p.addr, align 8
  call void @_ZN6icu_7516LocalPointerBaseINS_17RuleBasedCollatorEEC2EPS1_(ptr noundef nonnull align 8 dereferenceable(8) %this1, ptr noundef %0)
  ret void
}

; Function Attrs: mustprogress uwtable
define linkonce_odr void @_ZN6icu_7512LocalPointerINS_10BucketListEEC2EPS1_(ptr noundef nonnull align 8 dereferenceable(8) %this, ptr noundef %p) unnamed_addr #2 comdat align 2 {
entry:
  %this.addr = alloca ptr, align 8
  %p.addr = alloca ptr, align 8
  store ptr %this, ptr %this.addr, align 8
  store ptr %p, ptr %p.addr, align 8
  %this1 = load ptr, ptr %this.addr, align 8
  %0 = load ptr, ptr %p.addr, align 8
  call void @_ZN6icu_7516LocalPointerBaseINS_10BucketListEEC2EPS1_(ptr noundef nonnull align 8 dereferenceable(8) %this1, ptr noundef %0)
  ret void
}

; Function Attrs: mustprogress nounwind uwtable
define internal noundef signext i8 @_ZL9U_FAILURE10UErrorCode(i32 noundef %code) #0 {
entry:
  %code.addr = alloca i32, align 4
  store i32 %code, ptr %code.addr, align 4
  %0 = load i32, ptr %code.addr, align 4
  %cmp = icmp sgt i32 %0, 0
  %conv = zext i1 %cmp to i8
  ret i8 %conv
}

; Function Attrs: mustprogress uwtable
define noundef ptr @_ZN6icu_7515AlphabeticIndex19buildImmutableIndexER10UErrorCode(ptr noundef nonnull align 8 dereferenceable(400) %this, ptr noundef nonnull align 4 dereferenceable(4) %errorCode) #2 align 2 personality ptr @__gxx_personality_v0 {
entry:
  %retval = alloca ptr, align 8
  %this.addr = alloca ptr, align 8
  %errorCode.addr = alloca ptr, align 8
  %immutableBucketList = alloca %"class.icu_75::LocalPointer", align 8
  %coll = alloca %"class.icu_75::LocalPointer.1", align 8
  %exn.slot = alloca ptr, align 8
  %ehselector.slot = alloca i32, align 4
  %cleanup.dest.slot = alloca i32, align 4
  %immIndex = alloca ptr, align 8
  %saved-rvalue = alloca ptr, align 8
  %cleanup.cond = alloca i1, align 1
  store ptr %this, ptr %this.addr, align 8
  store ptr %errorCode, ptr %errorCode.addr, align 8
  %this1 = load ptr, ptr %this.addr, align 8
  %0 = load ptr, ptr %errorCode.addr, align 8
  %1 = load i32, ptr %0, align 4
  %call = call noundef signext i8 @_ZL9U_FAILURE10UErrorCode(i32 noundef %1)
  %tobool = icmp ne i8 %call, 0
  br i1 %tobool, label %if.then, label %if.end

if.then:                                          ; preds = %entry
  store ptr null, ptr %retval, align 8
  br label %return

if.end:                                           ; preds = %entry
  %2 = load ptr, ptr %errorCode.addr, align 8
  %call2 = call noundef ptr @_ZNK6icu_7515AlphabeticIndex16createBucketListER10UErrorCode(ptr noundef nonnull align 8 dereferenceable(400) %this1, ptr noundef nonnull align 4 dereferenceable(4) %2)
  call void @_ZN6icu_7512LocalPointerINS_10BucketListEEC2EPS1_(ptr noundef nonnull align 8 dereferenceable(8) %immutableBucketList, ptr noundef %call2)
  %collatorPrimaryOnly_ = getelementptr inbounds %"class.icu_75::AlphabeticIndex", ptr %this1, i32 0, i32 9
  %3 = load ptr, ptr %collatorPrimaryOnly_, align 8
  %call3 = invoke noundef ptr @_ZNK6icu_7517RuleBasedCollator5cloneEv(ptr noundef nonnull align 8 dereferenceable(272) %3)
          to label %invoke.cont unwind label %lpad

invoke.cont:                                      ; preds = %if.end
  invoke void @_ZN6icu_7512LocalPointerINS_17RuleBasedCollatorEEC2EPS1_(ptr noundef nonnull align 8 dereferenceable(8) %coll, ptr noundef %call3)
          to label %invoke.cont4 unwind label %lpad

invoke.cont4:                                     ; preds = %invoke.cont
  %call7 = invoke noundef signext i8 @_ZNK6icu_7516LocalPointerBaseINS_10BucketListEE6isNullEv(ptr noundef nonnull align 8 dereferenceable(8) %immutableBucketList)
          to label %invoke.cont6 unwind label %lpad5

invoke.cont6:                                     ; preds = %invoke.cont4
  %tobool8 = icmp ne i8 %call7, 0
  br i1 %tobool8, label %if.then12, label %lor.lhs.false

lor.lhs.false:                                    ; preds = %invoke.cont6
  %call10 = invoke noundef signext i8 @_ZNK6icu_7516LocalPointerBaseINS_17RuleBasedCollatorEE6isNullEv(ptr noundef nonnull align 8 dereferenceable(8) %coll)
          to label %invoke.cont9 unwind label %lpad5

invoke.cont9:                                     ; preds = %lor.lhs.false
  %tobool11 = icmp ne i8 %call10, 0
  br i1 %tobool11, label %if.then12, label %if.end13

if.then12:                                        ; preds = %invoke.cont9, %invoke.cont6
  %4 = load ptr, ptr %errorCode.addr, align 8
  store i32 7, ptr %4, align 4
  store ptr null, ptr %retval, align 8
  store i32 1, ptr %cleanup.dest.slot, align 4
  br label %cleanup

lpad:                                             ; preds = %invoke.cont, %if.end
  %5 = landingpad { ptr, i32 }
          cleanup
  %6 = extractvalue { ptr, i32 } %5, 0
  store ptr %6, ptr %exn.slot, align 8
  %7 = extractvalue { ptr, i32 } %5, 1
  store i32 %7, ptr %ehselector.slot, align 4
  br label %ehcleanup28

lpad5:                                            ; preds = %invoke.cont23, %if.end22, %lor.lhs.false, %invoke.cont4
  %8 = landingpad { ptr, i32 }
          cleanup
  %9 = extractvalue { ptr, i32 } %8, 0
  store ptr %9, ptr %exn.slot, align 8
  %10 = extractvalue { ptr, i32 } %8, 1
  store i32 %10, ptr %ehselector.slot, align 4
  br label %ehcleanup

if.end13:                                         ; preds = %invoke.cont9
  %call14 = call noundef ptr @_ZN6icu_757UMemorynwEm(i64 noundef 24) #7
  %new.isnull = icmp eq ptr %call14, null
  store i1 false, ptr %cleanup.cond, align 1
  br i1 %new.isnull, label %new.cont, label %new.notnull

new.notnull:                                      ; preds = %if.end13
  store ptr %call14, ptr %saved-rvalue, align 8
  store i1 true, ptr %cleanup.cond, align 1
  %call17 = invoke noundef ptr @_ZNK6icu_7516LocalPointerBaseINS_10BucketListEE8getAliasEv(ptr noundef nonnull align 8 dereferenceable(8) %immutableBucketList)
          to label %invoke.cont16 unwind label %lpad15

invoke.cont16:                                    ; preds = %new.notnull
  %call19 = invoke noundef ptr @_ZNK6icu_7516LocalPointerBaseINS_17RuleBasedCollatorEE8getAliasEv(ptr noundef nonnull align 8 dereferenceable(8) %coll)
          to label %invoke.cont18 unwind label %lpad15

invoke.cont18:                                    ; preds = %invoke.cont16
  invoke void @_ZN6icu_7515AlphabeticIndex14ImmutableIndexC2EPNS_10BucketListEPNS_8CollatorE(ptr noundef nonnull align 8 dereferenceable(24) %call14, ptr noundef %call17, ptr noundef %call19)
          to label %invoke.cont20 unwind label %lpad15

invoke.cont20:                                    ; preds = %invoke.cont18
  br label %new.cont

new.cont:                                         ; preds = %invoke.cont20, %if.end13
  %11 = phi ptr [ %call14, %invoke.cont20 ], [ null, %if.end13 ]
  store ptr %11, ptr %immIndex, align 8
  %12 = load ptr, ptr %immIndex, align 8
  %cmp = icmp eq ptr %12, null
  br i1 %cmp, label %if.then21, label %if.end22

if.then21:                                        ; preds = %new.cont
  %13 = load ptr, ptr %errorCode.addr, align 8
  store i32 7, ptr %13, align 4
  store ptr null, ptr %retval, align 8
  store i32 1, ptr %cleanup.dest.slot, align 4
  br label %cleanup

lpad15:                                           ; preds = %invoke.cont18, %invoke.cont16, %new.notnull
  %14 = landingpad { ptr, i32 }
          cleanup
  %15 = extractvalue { ptr, i32 } %14, 0
  store ptr %15, ptr %exn.slot, align 8
  %16 = extractvalue { ptr, i32 } %14, 1
  store i32 %16, ptr %ehselector.slot, align 4
  %cleanup.is_active = load i1, ptr %cleanup.cond, align 1
  br i1 %cleanup.is_active, label %cleanup.action, label %cleanup.done

cleanup.action:                                   ; preds = %lpad15
  %17 = load ptr, ptr %saved-rvalue, align 8
  call void @_ZN6icu_757UMemorydlEPv(ptr noundef %17) #7
  br label %cleanup.done

cleanup.done:                                     ; preds = %cleanup.action, %lpad15
  br label %ehcleanup

if.end22:                                         ; preds = %new.cont
  %call24 = invoke noundef ptr @_ZN6icu_7516LocalPointerBaseINS_10BucketListEE6orphanEv(ptr noundef nonnull align 8 dereferenceable(8) %immutableBucketList)
          to label %invoke.cont23 unwind label %lpad5

invoke.cont23:                                    ; preds = %if.end22
  %call26 = invoke noundef ptr @_ZN6icu_7516LocalPointerBaseINS_17RuleBasedCollatorEE6orphanEv(ptr noundef nonnull align 8 dereferenceable(8) %coll)
          to label %invoke.cont25 unwind label %lpad5

invoke.cont25:                                    ; preds = %invoke.cont23
  %18 = load ptr, ptr %immIndex, align 8
  store ptr %18, ptr %retval, align 8
  store i32 1, ptr %cleanup.dest.slot, align 4
  br label %cleanup

cleanup:                                          ; preds = %invoke.cont25, %if.then21, %if.then12
  call void @_ZN6icu_7512LocalPointerINS_17RuleBasedCollatorEED2Ev(ptr noundef nonnull align 8 dereferenceable(8) %coll) #7
  call void @_ZN6icu_7512LocalPointerINS_10BucketListEED2Ev(ptr noundef nonnull align 8 dereferenceable(8) %immutableBucketList) #7
  br label %return

ehcleanup:                                        ; preds = %cleanup.done, %lpad5
  call void @_ZN6icu_7512LocalPointerINS_17RuleBasedCollatorEED2Ev(ptr noundef nonnull align 8 dereferenceable(8) %coll) #7
  br label %ehcleanup28

ehcleanup28:                                      ; preds = %ehcleanup, %lpad
  call void @_ZN6icu_7512LocalPointerINS_10BucketListEED2Ev(ptr noundef nonnull align 8 dereferenceable(8) %immutableBucketList) #7
  br label %eh.resume

return:                                           ; preds = %cleanup, %if.then
  %19 = load ptr, ptr %retval, align 8
  ret ptr %19

eh.resume:                                        ; preds = %ehcleanup28
  %exn = load ptr, ptr %exn.slot, align 8
  %sel = load i32, ptr %ehselector.slot, align 4
  %lpad.val = insertvalue { ptr, i32 } poison, ptr %exn, 0
  %lpad.val29 = insertvalue { ptr, i32 } %lpad.val, i32 %sel, 1
  resume { ptr, i32 } %lpad.val29
}