; Function Attrs: mustprogress uwtable
define noundef ptr @_ZN6icu_7515AlphabeticIndex19buildImmutableIndexER10UErrorCode(ptr noundef nonnull align 8 dereferenceable(400) %this, ptr noundef nonnull align 4 dereferenceable(4) %errorCode) local_unnamed_addr #3 align 2 personality ptr @__gxx_personality_v0 {
entry:
  %0 = load i32, ptr %errorCode, align 4
  %cmp.i = icmp slt i32 %0, 1
  br i1 %cmp.i, label %if.end, label %return

if.end:                                           ; preds = %entry
  %call2 = tail call noundef ptr @_ZNK6icu_7515AlphabeticIndex16createBucketListER10UErrorCode(ptr noundef nonnull align 8 dereferenceable(400) %this, ptr noundef nonnull align 4 dereferenceable(4) %errorCode)
  %collatorPrimaryOnly_ = getelementptr inbounds i8, ptr %this, i64 64
  %1 = load ptr, ptr %collatorPrimaryOnly_, align 8
  %call3 = invoke noundef ptr @_ZNK6icu_7517RuleBasedCollator5cloneEv(ptr noundef nonnull align 8 dereferenceable(272) %1)
          to label %invoke.cont4 unwind label %lpad

invoke.cont4:                                     ; preds = %if.end
  %cmp.i5.not = icmp eq ptr %call2, null
  %cmp.i7.not = icmp eq ptr %call3, null
  %or.cond = or i1 %cmp.i5.not, %cmp.i7.not
  br i1 %or.cond, label %cleanup, label %if.end13

lpad:                                             ; preds = %if.end
  %2 = landingpad { ptr, i32 }
          cleanup
  %isnull.i = icmp eq ptr %call2, null
  br i1 %isnull.i, label %_ZN6icu_7512LocalPointerINS_10BucketListEED2Ev.exit, label %delete.notnull.i

delete.notnull.i:                                 ; preds = %lpad
  %vtable.i = load ptr, ptr %call2, align 8
  %vfn.i = getelementptr inbounds i8, ptr %vtable.i, i64 8
  %3 = load ptr, ptr %vfn.i, align 8
  tail call void %3(ptr noundef nonnull align 8 dereferenceable(24) %call2) #16
  br label %_ZN6icu_7512LocalPointerINS_10BucketListEED2Ev.exit

_ZN6icu_7512LocalPointerINS_10BucketListEED2Ev.exit: ; preds = %lpad, %delete.notnull.i
  resume { ptr, i32 } %2

if.end13:                                         ; preds = %invoke.cont4
  %call14 = tail call noundef ptr @_ZN6icu_757UMemorynwEm(i64 noundef 24) #16
  %new.isnull = icmp eq ptr %call14, null
  br i1 %new.isnull, label %cleanup.thread, label %_ZN6icu_7512LocalPointerINS_17RuleBasedCollatorEED2Ev.exit.thread

cleanup.thread:                                   ; preds = %if.end13
  store i32 7, ptr %errorCode, align 4
  br label %delete.notnull.i10

_ZN6icu_7512LocalPointerINS_17RuleBasedCollatorEED2Ev.exit.thread: ; preds = %if.end13
  store ptr getelementptr inbounds ({ [5 x ptr] }, ptr @_ZTVN6icu_7515AlphabeticIndex14ImmutableIndexE, i64 0, i32 0, i64 2), ptr %call14, align 8
  %buckets_.i = getelementptr inbounds i8, ptr %call14, i64 8
  store ptr %call2, ptr %buckets_.i, align 8
  %collatorPrimaryOnly_.i = getelementptr inbounds i8, ptr %call14, i64 16
  store ptr %call3, ptr %collatorPrimaryOnly_.i, align 8
  br label %return

cleanup:                                          ; preds = %invoke.cont4
  store i32 7, ptr %errorCode, align 4
  br i1 %cmp.i7.not, label %_ZN6icu_7512LocalPointerINS_17RuleBasedCollatorEED2Ev.exit, label %delete.notnull.i10

delete.notnull.i10:                               ; preds = %cleanup.thread, %cleanup
  tail call void @_ZN6icu_7517RuleBasedCollatorD1Ev(ptr noundef nonnull align 8 dereferenceable(272) %call3) #16
  tail call void @_ZN6icu_757UMemorydlEPv(ptr noundef nonnull %call3) #16
  br label %_ZN6icu_7512LocalPointerINS_17RuleBasedCollatorEED2Ev.exit

_ZN6icu_7512LocalPointerINS_17RuleBasedCollatorEED2Ev.exit: ; preds = %cleanup, %delete.notnull.i10
  br i1 %cmp.i5.not, label %return, label %delete.notnull.i12

delete.notnull.i12:                               ; preds = %_ZN6icu_7512LocalPointerINS_17RuleBasedCollatorEED2Ev.exit
  %vtable.i13 = load ptr, ptr %call2, align 8
  %vfn.i14 = getelementptr inbounds i8, ptr %vtable.i13, i64 8
  %4 = load ptr, ptr %vfn.i14, align 8
  tail call void %4(ptr noundef nonnull align 8 dereferenceable(24) %call2) #16
  br label %return

return:                                           ; preds = %delete.notnull.i12, %_ZN6icu_7512LocalPointerINS_17RuleBasedCollatorEED2Ev.exit, %_ZN6icu_7512LocalPointerINS_17RuleBasedCollatorEED2Ev.exit.thread, %entry
  %retval.1 = phi ptr [ null, %entry ], [ %call14, %_ZN6icu_7512LocalPointerINS_17RuleBasedCollatorEED2Ev.exit.thread ], [ null, %_ZN6icu_7512LocalPointerINS_17RuleBasedCollatorEED2Ev.exit ], [ null, %delete.notnull.i12 ]
  ret ptr %retval.1
}